target datalayout = "e-m:e-p270:32:32-p271:32:32-p272:64:64-i64:64-i128:128-f80:128-n8:16:32:64-S128"
target triple = "x86_64-pc-linux-gnu"

%struct.H5CX_node_t = type { %struct.H5CX_t, ptr }
%struct.H5CX_t = type { i64, ptr, i64, ptr, i64, ptr, i64, ptr, i64, ptr, i64, ptr, i64, i32, i64, i8, ptr, i8, ptr, i8, i32, i8, [3 x double], i8, i64, i8, i32, i8, %struct.H5Z_cb_t, i8, ptr, i8, %struct.H5T_vlen_alloc_info_t, i8, %struct.H5T_conv_cb_t, i8, i32, i8, i8, i8, i32, i8, i8, i32, i8, i8, i32, i8, i32, i8, i64, i8, i8, i8, i8, i8, ptr, i8, ptr, i8, i32, i8, i32, i8, %struct.H5VL_connector_prop_t, i8, ptr, i8 }
%struct.H5Z_cb_t = type { ptr, ptr }
%struct.H5T_vlen_alloc_info_t = type { ptr, ptr, ptr, ptr }
%struct.H5T_conv_cb_t = type { ptr, ptr }
%struct.H5VL_connector_prop_t = type { ptr, ptr }

@H5P_CLS_DATASET_CREATE_ID_g = external global i64, align 8
@H5P_init_g = external global i8, align 1
@H5_libterm_g = external global i8, align 1
@H5_libinit_g = external global i8, align 1
@.str.1 = private unnamed_addr constant [101 x i8] c"generated/home/dtcxzyw/WorkSpace/Projects/compilers/llvm-opt-benchmark/bench/hdf5/hdf5/src/H5Pdcpl.c\00", align 1
@H5E_FUNC_g = external global i64, align 8
@H5E_CANTINIT_g = external global i64, align 8
@.str.2 = private unnamed_addr constant [30 x i8] c"library initialization failed\00", align 1
@.str.3 = private unnamed_addr constant [32 x i8] c"interface initialization failed\00", align 1
@H5E_CANTSET_g = external global i64, align 8
@.str.4 = private unnamed_addr constant [22 x i8] c"can't set API context\00", align 1
@H5E_ID_g = external global i64, align 8
@H5E_BADID_g = external global i64, align 8
@.str.6 = private unnamed_addr constant [25 x i8] c"can't find object for ID\00", align 1
@H5E_PLIST_g = external global i64, align 8
@H5E_CANTGET_g = external global i64, align 8
@.str.84 = private unnamed_addr constant [17 x i8] c"dset_oh_minimize\00", align 1
@.str.85 = private unnamed_addr constant [38 x i8] c"can't get dset oh minimize flag value\00", align 1
@__func__.H5Pset_dset_no_attrs_hint = private unnamed_addr constant [26 x i8] c"H5Pset_dset_no_attrs_hint\00", align 1
@.str.86 = private unnamed_addr constant [45 x i8] c"can't get extant dset oh minimize flag value\00", align 1

; Function Attrs: nounwind uwtable
define i32 @H5Pset_dset_no_attrs_hint(i64 noundef %0, i1 noundef zeroext %1) #0 {
  %3 = alloca i64, align 8
  %4 = alloca i8, align 1
  %5 = alloca ptr, align 8
  %6 = alloca i8, align 1
  %7 = alloca i32, align 4
  %8 = alloca %struct.H5CX_node_t, align 8
  %9 = alloca i8, align 1
  %10 = alloca i8, align 1
  store i64 %0, ptr %3, align 8, !tbaa !14
  %11 = zext i1 %1 to i8
  store i8 %11, ptr %4, align 1, !tbaa !10
  call void @llvm.lifetime.start.p0(i64 8, ptr %5) #11
  store ptr null, ptr %5, align 8, !tbaa !28
  call void @llvm.lifetime.start.p0(i64 1, ptr %6) #11
  store i8 0, ptr %6, align 1, !tbaa !10
  call void @llvm.lifetime.start.p0(i64 4, ptr %7) #11
  store i32 0, ptr %7, align 4, !tbaa !8
  call void @llvm.lifetime.start.p0(i64 480, ptr %8) #11
  call void @llvm.memset.p0.i64(ptr align 8 %8, i8 0, i64 480, i1 false)
  call void @llvm.lifetime.start.p0(i64 1, ptr %9) #11
  store i8 0, ptr %9, align 1, !tbaa !10
  call void @llvm.lifetime.start.p0(i64 1, ptr %10) #11
  store i8 0, ptr %10, align 1, !tbaa !10
  br label %12

12:                                               ; preds = %2
  %13 = load i8, ptr @H5_libinit_g, align 1, !tbaa !10, !range !12, !noundef !13
  %14 = trunc i8 %13 to i1
  br i1 %14, label %19, label %15

15:                                               ; preds = %12
  %16 = load i8, ptr @H5_libterm_g, align 1, !tbaa !10, !range !12, !noundef !13
  %17 = trunc i8 %16 to i1
  %18 = xor i1 %17, true
  br label %19

19:                                               ; preds = %15, %12
  %20 = phi i1 [ false, %12 ], [ %18, %15 ]
  %21 = xor i1 %20, true
  %22 = xor i1 %21, true
  %23 = zext i1 %22 to i32
  %24 = sext i32 %23 to i64
  %25 = call i64 @llvm.expect.i64(i64 %24, i64 0)
  %26 = icmp ne i64 %25, 0
  br i1 %26, label %27, label %56

27:                                               ; preds = %19
  %28 = call i32 @H5_init_library()
  %29 = icmp slt i32 %28, 0
  %30 = xor i1 %29, true
  %31 = xor i1 %30, true
  %32 = zext i1 %31 to i32
  %33 = sext i32 %32 to i64
  %34 = call i64 @llvm.expect.i64(i64 %33, i64 0)
  %35 = icmp ne i64 %34, 0
  br i1 %35, label %36, label %55

36:                                               ; preds = %27
  br label %37

37:                                               ; preds = %36
  br label %38

38:                                               ; preds = %37
  br label %39

39:                                               ; preds = %38
  %40 = load i64, ptr @H5E_FUNC_g, align 8, !tbaa !14
  %41 = load i64, ptr @H5E_CANTINIT_g, align 8, !tbaa !14
  %42 = call i32 (ptr, ptr, i32, i64, i64, ptr, ...) @H5E_printf_stack(ptr noundef @.str.1, ptr noundef @__func__.H5Pset_dset_no_attrs_hint, i32 noundef 3535, i64 noundef %40, i64 noundef %41, ptr noundef @.str.2)
  br label %43

43:                                               ; preds = %39
  br label %44

44:                                               ; preds = %43
  store i8 1, ptr %10, align 1, !tbaa !10
  %45 = load i8, ptr %10, align 1, !tbaa !10, !range !12, !noundef !13
  %46 = trunc i8 %45 to i1
  %47 = zext i1 %46 to i8
  store i8 %47, ptr %10, align 1, !tbaa !10
  br label %48

48:                                               ; preds = %44
  br label %49

49:                                               ; preds = %48
  br label %50

50:                                               ; preds = %49
  store i32 -1, ptr %7, align 4, !tbaa !8
  br label %201

51:                                               ; No predecessors!
  br label %52

52:                                               ; preds = %51
  br label %53

53:                                               ; preds = %52
  br label %54

54:                                               ; preds = %53
  br label %55

55:                                               ; preds = %54, %27
  br label %56

56:                                               ; preds = %55, %19
  %57 = load i8, ptr @H5P_init_g, align 1, !tbaa !10, !range !12, !noundef !13
  %58 = trunc i8 %57 to i1
  br i1 %58, label %63, label %59

59:                                               ; preds = %56
  %60 = load i8, ptr @H5_libterm_g, align 1, !tbaa !10, !range !12, !noundef !13
  %61 = trunc i8 %60 to i1
  %62 = xor i1 %61, true
  br label %63

63:                                               ; preds = %59, %56
  %64 = phi i1 [ false, %56 ], [ %62, %59 ]
  %65 = xor i1 %64, true
  %66 = xor i1 %65, true
  %67 = zext i1 %66 to i32
  %68 = sext i32 %67 to i64
  %69 = call i64 @llvm.expect.i64(i64 %68, i64 0)
  %70 = icmp ne i64 %69, 0
  br i1 %70, label %71, label %94

71:                                               ; preds = %63
  store i8 1, ptr @H5P_init_g, align 1, !tbaa !10
  %72 = call i32 @H5P__init_package()
  %73 = icmp slt i32 %72, 0
  br i1 %73, label %74, label %93

74:                                               ; preds = %71
  store i8 0, ptr @H5P_init_g, align 1, !tbaa !10
  br label %75

75:                                               ; preds = %74
  br label %76

76:                                               ; preds = %75
  br label %77

77:                                               ; preds = %76
  %78 = load i64, ptr @H5E_FUNC_g, align 8, !tbaa !14
  %79 = load i64, ptr @H5E_CANTINIT_g, align 8, !tbaa !14
  %80 = call i32 (ptr, ptr, i32, i64, i64, ptr, ...) @H5E_printf_stack(ptr noundef @.str.1, ptr noundef @__func__.H5Pset_dset_no_attrs_hint, i32 noundef 3535, i64 noundef %78, i64 noundef %79, ptr noundef @.str.3)
  br label %81

81:                                               ; preds = %77
  br label %82

82:                                               ; preds = %81
  store i8 1, ptr %10, align 1, !tbaa !10
  %83 = load i8, ptr %10, align 1, !tbaa !10, !range !12, !noundef !13
  %84 = trunc i8 %83 to i1
  %85 = zext i1 %84 to i8
  store i8 %85, ptr %10, align 1, !tbaa !10
  br label %86

86:                                               ; preds = %82
  br label %87

87:                                               ; preds = %86
  br label %88

88:                                               ; preds = %87
  store i32 -1, ptr %7, align 4, !tbaa !8
  br label %201

89:                                               ; No predecessors!
  br label %90

90:                                               ; preds = %89
  br label %91

91:                                               ; preds = %90
  br label %92

92:                                               ; preds = %91
  br label %93

93:                                               ; preds = %92, %71
  br label %94

94:                                               ; preds = %93, %63
  br label %95

95:                                               ; preds = %94
  br label %96

96:                                               ; preds = %95
  br label %97

97:                                               ; preds = %96
  %98 = call i32 @H5CX_push(ptr noundef %8)
  %99 = icmp slt i32 %98, 0
  %100 = xor i1 %99, true
  %101 = xor i1 %100, true
  %102 = zext i1 %101 to i32
  %103 = sext i32 %102 to i64
  %104 = call i64 @llvm.expect.i64(i64 %103, i64 0)
  %105 = icmp ne i64 %104, 0
  br i1 %105, label %106, label %125

106:                                              ; preds = %97
  br label %107

107:                                              ; preds = %106
  br label %108

108:                                              ; preds = %107
  br label %109

109:                                              ; preds = %108
  %110 = load i64, ptr @H5E_FUNC_g, align 8, !tbaa !14
  %111 = load i64, ptr @H5E_CANTSET_g, align 8, !tbaa !14
  %112 = call i32 (ptr, ptr, i32, i64, i64, ptr, ...) @H5E_printf_stack(ptr noundef @.str.1, ptr noundef @__func__.H5Pset_dset_no_attrs_hint, i32 noundef 3535, i64 noundef %110, i64 noundef %111, ptr noundef @.str.4)
  br label %113

113:                                              ; preds = %109
  br label %114

114:                                              ; preds = %113
  store i8 1, ptr %10, align 1, !tbaa !10
  %115 = load i8, ptr %10, align 1, !tbaa !10, !range !12, !noundef !13
  %116 = trunc i8 %115 to i1
  %117 = zext i1 %116 to i8
  store i8 %117, ptr %10, align 1, !tbaa !10
  br label %118

118:                                              ; preds = %114
  br label %119

119:                                              ; preds = %118
  br label %120

120:                                              ; preds = %119
  store i32 -1, ptr %7, align 4, !tbaa !8
  br label %201

121:                                              ; No predecessors!
  br label %122

122:                                              ; preds = %121
  br label %123

123:                                              ; preds = %122
  br label %124

124:                                              ; preds = %123
  br label %126

125:                                              ; preds = %97
  store i8 1, ptr %9, align 1, !tbaa !10
  br label %126

126:                                              ; preds = %125, %124
  br label %127

127:                                              ; preds = %126
  br label %128

128:                                              ; preds = %127
  %129 = call i32 @H5E_clear_stack()
  %130 = load i64, ptr %3, align 8, !tbaa !14
  %131 = load i64, ptr @H5P_CLS_DATASET_CREATE_ID_g, align 8, !tbaa !14
  %132 = call ptr @H5P_object_verify(i64 noundef %130, i64 noundef %131, i1 noundef zeroext false)
  store ptr %132, ptr %5, align 8, !tbaa !28
  %133 = load ptr, ptr %5, align 8, !tbaa !28
  %134 = icmp eq ptr null, %133
  br i1 %134, label %135, label %154

135:                                              ; preds = %128
  br label %136

136:                                              ; preds = %135
  br label %137

137:                                              ; preds = %136
  br label %138

138:                                              ; preds = %137
  %139 = load i64, ptr @H5E_ID_g, align 8, !tbaa !14
  %140 = load i64, ptr @H5E_BADID_g, align 8, !tbaa !14
  %141 = call i32 (ptr, ptr, i32, i64, i64, ptr, ...) @H5E_printf_stack(ptr noundef @.str.1, ptr noundef @__func__.H5Pset_dset_no_attrs_hint, i32 noundef 3539, i64 noundef %139, i64 noundef %140, ptr noundef @.str.6)
  br label %142

142:                                              ; preds = %138
  br label %143

143:                                              ; preds = %142
  store i8 1, ptr %10, align 1, !tbaa !10
  %144 = load i8, ptr %10, align 1, !tbaa !10, !range !12, !noundef !13
  %145 = trunc i8 %144 to i1
  %146 = zext i1 %145 to i8
  store i8 %146, ptr %10, align 1, !tbaa !10
  br label %147

147:                                              ; preds = %143
  br label %148

148:                                              ; preds = %147
  br label %149

149:                                              ; preds = %148
  store i32 -1, ptr %7, align 4, !tbaa !8
  br label %201

150:                                              ; No predecessors!
  br label %151

151:                                              ; preds = %150
  br label %152

152:                                              ; preds = %151
  br label %153

153:                                              ; preds = %152
  br label %154

154:                                              ; preds = %153, %128
  %155 = load ptr, ptr %5, align 8, !tbaa !28
  %156 = call i32 @H5P_peek(ptr noundef %155, ptr noundef @.str.84, ptr noundef %6)
  %157 = icmp slt i32 %156, 0
  br i1 %157, label %158, label %177

158:                                              ; preds = %154
  br label %159

159:                                              ; preds = %158
  br label %160

160:                                              ; preds = %159
  br label %161

161:                                              ; preds = %160
  %162 = load i64, ptr @H5E_PLIST_g, align 8, !tbaa !14
  %163 = load i64, ptr @H5E_CANTGET_g, align 8, !tbaa !14
  %164 = call i32 (ptr, ptr, i32, i64, i64, ptr, ...) @H5E_printf_stack(ptr noundef @.str.1, ptr noundef @__func__.H5Pset_dset_no_attrs_hint, i32 noundef 3542, i64 noundef %162, i64 noundef %163, ptr noundef @.str.86)
  br label %165

165:                                              ; preds = %161
  br label %166

166:                                              ; preds = %165
  store i8 1, ptr %10, align 1, !tbaa !10
  %167 = load i8, ptr %10, align 1, !tbaa !10, !range !12, !noundef !13
  %168 = trunc i8 %167 to i1
  %169 = zext i1 %168 to i8
  store i8 %169, ptr %10, align 1, !tbaa !10
  br label %170

170:                                              ; preds = %166
  br label %171

171:                                              ; preds = %170
  br label %172

172:                                              ; preds = %171
  store i32 -1, ptr %7, align 4, !tbaa !8
  br label %201

173:                                              ; No predecessors!
  br label %174

174:                                              ; preds = %173
  br label %175

175:                                              ; preds = %174
  br label %176

176:                                              ; preds = %175
  br label %177

177:                                              ; preds = %176, %154
  %178 = load ptr, ptr %5, align 8, !tbaa !28
  %179 = call i32 @H5P_poke(ptr noundef %178, ptr noundef @.str.84, ptr noundef %4)
  %180 = icmp slt i32 %179, 0
  br i1 %180, label %181, label %200

181:                                              ; preds = %177
  br label %182

182:                                              ; preds = %181
  br label %183

183:                                              ; preds = %182
  br label %184

184:                                              ; preds = %183
  %185 = load i64, ptr @H5E_PLIST_g, align 8, !tbaa !14
  %186 = load i64, ptr @H5E_CANTSET_g, align 8, !tbaa !14
  %187 = call i32 (ptr, ptr, i32, i64, i64, ptr, ...) @H5E_printf_stack(ptr noundef @.str.1, ptr noundef @__func__.H5Pset_dset_no_attrs_hint, i32 noundef 3545, i64 noundef %185, i64 noundef %186, ptr noundef @.str.85)
  br label %188

188:                                              ; preds = %184
  br label %189

189:                                              ; preds = %188
  store i8 1, ptr %10, align 1, !tbaa !10
  %190 = load i8, ptr %10, align 1, !tbaa !10, !range !12, !noundef !13
  %191 = trunc i8 %190 to i1
  %192 = zext i1 %191 to i8
  store i8 %192, ptr %10, align 1, !tbaa !10
  br label %193

193:                                              ; preds = %189
  br label %194

194:                                              ; preds = %193
  br label %195

195:                                              ; preds = %194
  store i32 -1, ptr %7, align 4, !tbaa !8
  br label %201

196:                                              ; No predecessors!
  br label %197

197:                                              ; preds = %196
  br label %198

198:                                              ; preds = %197
  br label %199

199:                                              ; preds = %198
  br label %200

200:                                              ; preds = %199, %177
  br label %201

201:                                              ; preds = %200, %195, %172, %149, %120, %88, %50
  %202 = load i8, ptr %9, align 1, !tbaa !10, !range !12, !noundef !13
  %203 = trunc i8 %202 to i1
  %204 = xor i1 %203, true
  %205 = xor i1 %204, true
  %206 = zext i1 %205 to i32
  %207 = sext i32 %206 to i64
  %208 = call i64 @llvm.expect.i64(i64 %207, i64 1)
  %209 = icmp ne i64 %208, 0
  br i1 %209, label %210, label %212

210:                                              ; preds = %201
  %211 = call i32 @H5CX_pop(i1 noundef zeroext true)
  store i8 0, ptr %9, align 1, !tbaa !10
  br label %212

212:                                              ; preds = %210, %201
  %213 = load i8, ptr %10, align 1, !tbaa !10, !range !12, !noundef !13
  %214 = trunc i8 %213 to i1
  %215 = xor i1 %214, true
  %216 = xor i1 %215, true
  %217 = zext i1 %216 to i32
  %218 = sext i32 %217 to i64
  %219 = call i64 @llvm.expect.i64(i64 %218, i64 0)
  %220 = icmp ne i64 %219, 0
  br i1 %220, label %221, label %223

221:                                              ; preds = %212
  %222 = call i32 @H5E_dump_api_stack()
  br label %223

223:                                              ; preds = %221, %212
  %224 = load i32, ptr %7, align 4, !tbaa !8
  call void @llvm.lifetime.end.p0(i64 1, ptr %10) #11
  call void @llvm.lifetime.end.p0(i64 1, ptr %9) #11
  call void @llvm.lifetime.end.p0(i64 480, ptr %8) #11
  call void @llvm.lifetime.end.p0(i64 4, ptr %7) #11
  call void @llvm.lifetime.end.p0(i64 1, ptr %6) #11
  call void @llvm.lifetime.end.p0(i64 8, ptr %5) #11
  ret i32 %224
}