; Function Attrs: nounwind uwtable
define range(i32 -1, 1) i32 @H5Pset_dset_no_attrs_hint(i64 noundef %0, i1 noundef zeroext %1) local_unnamed_addr #0 {
  %3 = alloca i8, align 1
  %4 = alloca i8, align 1
  %5 = alloca %struct.H5CX_node_t, align 8
  %6 = zext i1 %1 to i8
  store i8 %6, ptr %3, align 1, !tbaa !3
  call void @llvm.lifetime.start.p0(i64 1, ptr nonnull %4) #12
  store i8 0, ptr %4, align 1, !tbaa !3
  call void @llvm.lifetime.start.p0(i64 480, ptr nonnull %5) #12
  call void @llvm.memset.p0.i64(ptr noundef nonnull align 8 dereferenceable(480) %5, i8 0, i64 480, i1 false)
  %7 = load i8, ptr @H5_libinit_g, align 1, !tbaa !3, !range !7, !noundef !8
  %8 = trunc nuw i8 %7 to i1
  %9 = load i8, ptr @H5_libterm_g, align 1, !range !7
  %10 = trunc nuw i8 %9 to i1
  %11 = select i1 %8, i1 true, i1 %10
  br i1 %11, label %19, label %12, !prof !9

12:                                               ; preds = %2
  %13 = tail call i32 @H5_init_library() #12
  %14 = icmp slt i32 %13, 0
  br i1 %14, label %15, label %._crit_edge, !prof !23

._crit_edge:                                      ; preds = %12
  %.pre = load i8, ptr @H5_libterm_g, align 1, !range !7
  br label %19

15:                                               ; preds = %12
  %16 = load i64, ptr @H5E_FUNC_g, align 8, !tbaa !10
  %17 = load i64, ptr @H5E_CANTINIT_g, align 8, !tbaa !10
  %18 = tail call i32 (ptr, ptr, i32, i64, i64, ptr, ...) @H5E_printf_stack(ptr noundef nonnull @.str.1, ptr noundef nonnull @__func__.H5Pset_dset_no_attrs_hint, i32 noundef 3535, i64 noundef %16, i64 noundef %17, ptr noundef nonnull @.str.2) #12
  br label %.thread23

19:                                               ; preds = %._crit_edge, %2
  %20 = phi i8 [ %.pre, %._crit_edge ], [ %9, %2 ]
  %21 = load i8, ptr @H5P_init_g, align 1, !tbaa !3, !range !7, !noundef !8
  %22 = trunc nuw i8 %21 to i1
  %23 = trunc nuw i8 %20 to i1
  %24 = select i1 %22, i1 true, i1 %23
  br i1 %24, label %32, label %25, !prof !9

25:                                               ; preds = %19
  store i8 1, ptr @H5P_init_g, align 1, !tbaa !3
  %26 = tail call i32 @H5P__init_package() #12
  %27 = icmp slt i32 %26, 0
  br i1 %27, label %28, label %32, !prof !24

28:                                               ; preds = %25
  store i8 0, ptr @H5P_init_g, align 1, !tbaa !3
  %29 = load i64, ptr @H5E_FUNC_g, align 8, !tbaa !10
  %30 = load i64, ptr @H5E_CANTINIT_g, align 8, !tbaa !10
  %31 = tail call i32 (ptr, ptr, i32, i64, i64, ptr, ...) @H5E_printf_stack(ptr noundef nonnull @.str.1, ptr noundef nonnull @__func__.H5Pset_dset_no_attrs_hint, i32 noundef 3535, i64 noundef %29, i64 noundef %30, ptr noundef nonnull @.str.3) #12
  br label %.thread23

32:                                               ; preds = %19, %25
  %33 = call i32 @H5CX_push(ptr noundef nonnull %5) #12
  %34 = icmp slt i32 %33, 0
  br i1 %34, label %35, label %39, !prof !23

35:                                               ; preds = %32
  %36 = load i64, ptr @H5E_FUNC_g, align 8, !tbaa !10
  %37 = load i64, ptr @H5E_CANTSET_g, align 8, !tbaa !10
  %38 = call i32 (ptr, ptr, i32, i64, i64, ptr, ...) @H5E_printf_stack(ptr noundef nonnull @.str.1, ptr noundef nonnull @__func__.H5Pset_dset_no_attrs_hint, i32 noundef 3535, i64 noundef %36, i64 noundef %37, ptr noundef nonnull @.str.4) #12
  br label %.thread23

39:                                               ; preds = %32
  %40 = call i32 @H5E_clear_stack() #12
  %41 = load i64, ptr @H5P_CLS_DATASET_CREATE_ID_g, align 8, !tbaa !10
  %42 = call ptr @H5P_object_verify(i64 noundef %0, i64 noundef %41, i1 noundef zeroext false) #12
  %43 = icmp eq ptr %42, null
  br i1 %43, label %44, label %48, !prof !25

44:                                               ; preds = %39
  %45 = load i64, ptr @H5E_ID_g, align 8, !tbaa !10
  %46 = load i64, ptr @H5E_BADID_g, align 8, !tbaa !10
  %47 = call i32 (ptr, ptr, i32, i64, i64, ptr, ...) @H5E_printf_stack(ptr noundef nonnull @.str.1, ptr noundef nonnull @__func__.H5Pset_dset_no_attrs_hint, i32 noundef 3539, i64 noundef %45, i64 noundef %46, ptr noundef nonnull @.str.6) #12
  br label %.thread29

48:                                               ; preds = %39
  %49 = call i32 @H5P_peek(ptr noundef nonnull %42, ptr noundef nonnull @.str.84, ptr noundef nonnull %4) #12
  %50 = icmp slt i32 %49, 0
  br i1 %50, label %51, label %55, !prof !25

51:                                               ; preds = %48
  %52 = load i64, ptr @H5E_PLIST_g, align 8, !tbaa !10
  %53 = load i64, ptr @H5E_CANTGET_g, align 8, !tbaa !10
  %54 = call i32 (ptr, ptr, i32, i64, i64, ptr, ...) @H5E_printf_stack(ptr noundef nonnull @.str.1, ptr noundef nonnull @__func__.H5Pset_dset_no_attrs_hint, i32 noundef 3542, i64 noundef %52, i64 noundef %53, ptr noundef nonnull @.str.86) #12
  br label %.thread29

55:                                               ; preds = %48
  %56 = call i32 @H5P_poke(ptr noundef nonnull %42, ptr noundef nonnull @.str.84, ptr noundef nonnull %3) #12
  %57 = icmp slt i32 %56, 0
  br i1 %57, label %58, label %63, !prof !25

58:                                               ; preds = %55
  %59 = load i64, ptr @H5E_PLIST_g, align 8, !tbaa !10
  %60 = load i64, ptr @H5E_CANTSET_g, align 8, !tbaa !10
  %61 = call i32 (ptr, ptr, i32, i64, i64, ptr, ...) @H5E_printf_stack(ptr noundef nonnull @.str.1, ptr noundef nonnull @__func__.H5Pset_dset_no_attrs_hint, i32 noundef 3545, i64 noundef %59, i64 noundef %60, ptr noundef nonnull @.str.85) #12
  br label %.thread29

.thread29:                                        ; preds = %58, %51, %44
  %62 = call i32 @H5CX_pop(i1 noundef zeroext true) #12
  br label %.thread23

63:                                               ; preds = %55
  %64 = call i32 @H5CX_pop(i1 noundef zeroext true) #12
  br label %66

.thread23:                                        ; preds = %35, %28, %15, %.thread29
  %65 = call i32 @H5E_dump_api_stack() #12
  br label %66

66:                                               ; preds = %63, %.thread23
  %.0131826 = phi i32 [ -1, %.thread23 ], [ 0, %63 ]
  call void @llvm.lifetime.end.p0(i64 480, ptr nonnull %5) #12
  call void @llvm.lifetime.end.p0(i64 1, ptr nonnull %4) #12
  ret i32 %.0131826
}